target datalayout = "e-m:e-p270:32:32-p271:32:32-p272:64:64-i64:64-i128:128-f80:128-n8:16:32:64-S128"
target triple = "x86_64-pc-linux-gnu"

%"class.std::__cxx11::basic_string" = type { %"struct.std::__cxx11::basic_string<char>::_Alloc_hider", i64, %union.anon }
%"struct.std::__cxx11::basic_string<char>::_Alloc_hider" = type { ptr }
%union.anon = type { i64, [8 x i8] }
%"class.__gnu_cxx::__normal_iterator.28" = type { ptr }

@.str.66 = private unnamed_addr constant [2 x i8] c".\00", align 1
@.str.67 = private unnamed_addr constant [3 x i8] c"..\00", align 1
@.str.68 = private unnamed_addr constant [3 x i8] c"\\/\00", align 1

; Function Attrs: mustprogress nounwind uwtable
define linkonce_odr dso_local noundef nonnull align 8 dereferenceable(8) ptr @_ZNK9__gnu_cxx17__normal_iteratorIPKcNSt7__cxx1112basic_stringIcSt11char_traitsIcESaIcEEEE4baseEv(ptr noundef nonnull align 8 dereferenceable(8) %0) #4 comdat align 2 {
  %2 = alloca ptr, align 8
  store ptr %0, ptr %2, align 8, !tbaa !100
  %3 = load ptr, ptr %2, align 8
  %4 = getelementptr inbounds nuw %"class.__gnu_cxx::__normal_iterator.28", ptr %3, i32 0, i32 0
  ret ptr %4
}

; Function Attrs: mustprogress nounwind uwtable
define linkonce_odr dso_local void @_ZN9__gnu_cxx17__normal_iteratorIPKcNSt7__cxx1112basic_stringIcSt11char_traitsIcESaIcEEEEC2ERKS2_(ptr noundef nonnull align 8 dereferenceable(8) %0, ptr noundef nonnull align 8 dereferenceable(8) %1) unnamed_addr #4 comdat align 2 {
  %3 = alloca ptr, align 8
  %4 = alloca ptr, align 8
  store ptr %0, ptr %3, align 8, !tbaa !100
  store ptr %1, ptr %4, align 8, !tbaa !228
  %5 = load ptr, ptr %3, align 8
  %6 = getelementptr inbounds nuw %"class.__gnu_cxx::__normal_iterator.28", ptr %5, i32 0, i32 0
  %7 = load ptr, ptr %4, align 8, !tbaa !228
  %8 = load ptr, ptr %7, align 8, !tbaa !55
  store ptr %8, ptr %6, align 8, !tbaa !102
  ret void
}

; Function Attrs: mustprogress nounwind uwtable
define available_externally noundef ptr @_ZNKSt7__cxx1112basic_stringIcSt11char_traitsIcESaIcEE7_M_dataEv(ptr noundef nonnull align 8 dereferenceable(32) %0) #4 align 2 {
  %2 = alloca ptr, align 8
  store ptr %0, ptr %2, align 8, !tbaa !54
  %3 = load ptr, ptr %2, align 8
  %4 = getelementptr inbounds nuw %"class.std::__cxx11::basic_string", ptr %3, i32 0, i32 0
  %5 = getelementptr inbounds nuw %"struct.std::__cxx11::basic_string<char>::_Alloc_hider", ptr %4, i32 0, i32 0
  %6 = load ptr, ptr %5, align 8, !tbaa !217
  ret ptr %6
}

; Function Attrs: mustprogress nounwind uwtable
define linkonce_odr dso_local noundef i64 @_ZNSt11char_traitsIcE6lengthEPKc(ptr noundef %0) #4 comdat align 2 {
  %2 = alloca ptr, align 8
  store ptr %0, ptr %2, align 8, !tbaa !55
  %3 = load ptr, ptr %2, align 8, !tbaa !55
  %4 = call i64 @strlen(ptr noundef %3) #16
  ret i64 %4
}

; Function Attrs: inlinehint mustprogress nounwind uwtable
define linkonce_odr dso_local noundef zeroext i1 @_ZSteqIcSt11char_traitsIcESaIcEEbRKNSt7__cxx1112basic_stringIT_T0_T1_EEPKS5_(ptr noundef nonnull align 8 dereferenceable(32) %0, ptr noundef %1) #3 comdat {
  %3 = alloca ptr, align 8
  %4 = alloca ptr, align 8
  store ptr %0, ptr %3, align 8, !tbaa !54
  store ptr %1, ptr %4, align 8, !tbaa !55
  %5 = load ptr, ptr %3, align 8, !tbaa !54
  %6 = load ptr, ptr %4, align 8, !tbaa !55
  %7 = call noundef i32 @_ZNKSt7__cxx1112basic_stringIcSt11char_traitsIcESaIcEE7compareEPKc(ptr noundef nonnull align 8 dereferenceable(32) %5, ptr noundef %6) #16
  %8 = icmp eq i32 %7, 0
  ret i1 %8
}

; Function Attrs: mustprogress nounwind uwtable
define available_externally noundef i64 @_ZNKSt7__cxx1112basic_stringIcSt11char_traitsIcESaIcEE4sizeEv(ptr noundef nonnull align 8 dereferenceable(32) %0) #4 align 2 {
  %2 = alloca ptr, align 8
  store ptr %0, ptr %2, align 8, !tbaa !54
  %3 = load ptr, ptr %2, align 8
  %4 = getelementptr inbounds nuw %"class.std::__cxx11::basic_string", ptr %3, i32 0, i32 1
  %5 = load i64, ptr %4, align 8, !tbaa !216
  ret i64 %5
}

; Function Attrs: mustprogress nounwind uwtable
define linkonce_odr dso_local noundef nonnull align 8 dereferenceable(8) ptr @_ZN9__gnu_cxx17__normal_iteratorIPKcNSt7__cxx1112basic_stringIcSt11char_traitsIcESaIcEEEEppEv(ptr noundef nonnull align 8 dereferenceable(8) %0) #4 comdat align 2 {
  %2 = alloca ptr, align 8
  store ptr %0, ptr %2, align 8, !tbaa !100
  %3 = load ptr, ptr %2, align 8
  %4 = getelementptr inbounds nuw %"class.__gnu_cxx::__normal_iterator.28", ptr %3, i32 0, i32 0
  %5 = load ptr, ptr %4, align 8, !tbaa !102
  %6 = getelementptr inbounds nuw i8, ptr %5, i32 1
  store ptr %6, ptr %4, align 8, !tbaa !102
  ret ptr %3
}

; Function Attrs: mustprogress nounwind uwtable
define linkonce_odr dso_local noundef nonnull align 1 dereferenceable(1) ptr @_ZNK9__gnu_cxx17__normal_iteratorIPKcNSt7__cxx1112basic_stringIcSt11char_traitsIcESaIcEEEEdeEv(ptr noundef nonnull align 8 dereferenceable(8) %0) #4 comdat align 2 {
  %2 = alloca ptr, align 8
  store ptr %0, ptr %2, align 8, !tbaa !100
  %3 = load ptr, ptr %2, align 8
  %4 = getelementptr inbounds nuw %"class.__gnu_cxx::__normal_iterator.28", ptr %3, i32 0, i32 0
  %5 = load ptr, ptr %4, align 8, !tbaa !102
  ret ptr %5
}

; Function Attrs: inlinehint mustprogress nounwind uwtable
define linkonce_odr dso_local noundef zeroext i1 @_ZN9__gnu_cxxneIPKcNSt7__cxx1112basic_stringIcSt11char_traitsIcESaIcEEEEEbRKNS_17__normal_iteratorIT_T0_EESE_(ptr noundef nonnull align 8 dereferenceable(8) %0, ptr noundef nonnull align 8 dereferenceable(8) %1) #3 comdat {
  %3 = alloca ptr, align 8
  %4 = alloca ptr, align 8
  store ptr %0, ptr %3, align 8, !tbaa !100
  store ptr %1, ptr %4, align 8, !tbaa !100
  %5 = load ptr, ptr %3, align 8, !tbaa !100
  %6 = call noundef nonnull align 8 dereferenceable(8) ptr @_ZNK9__gnu_cxx17__normal_iteratorIPKcNSt7__cxx1112basic_stringIcSt11char_traitsIcESaIcEEEE4baseEv(ptr noundef nonnull align 8 dereferenceable(8) %5) #16
  %7 = load ptr, ptr %6, align 8, !tbaa !55
  %8 = load ptr, ptr %4, align 8, !tbaa !100
  %9 = call noundef nonnull align 8 dereferenceable(8) ptr @_ZNK9__gnu_cxx17__normal_iteratorIPKcNSt7__cxx1112basic_stringIcSt11char_traitsIcESaIcEEEE4baseEv(ptr noundef nonnull align 8 dereferenceable(8) %8) #16
  %10 = load ptr, ptr %9, align 8, !tbaa !55
  %11 = icmp ne ptr %7, %10
  ret i1 %11
}

; Function Attrs: mustprogress nounwind uwtable
define available_externally ptr @_ZNKSt7__cxx1112basic_stringIcSt11char_traitsIcESaIcEE3endEv(ptr noundef nonnull align 8 dereferenceable(32) %0) #4 align 2 {
  %2 = alloca %"class.__gnu_cxx::__normal_iterator.28", align 8
  %3 = alloca ptr, align 8
  %4 = alloca ptr, align 8
  store ptr %0, ptr %3, align 8, !tbaa !54
  %5 = load ptr, ptr %3, align 8
  call void @llvm.lifetime.start.p0(i64 8, ptr %4) #16
  %6 = call noundef ptr @_ZNKSt7__cxx1112basic_stringIcSt11char_traitsIcESaIcEE7_M_dataEv(ptr noundef nonnull align 8 dereferenceable(32) %5)
  %7 = call noundef i64 @_ZNKSt7__cxx1112basic_stringIcSt11char_traitsIcESaIcEE4sizeEv(ptr noundef nonnull align 8 dereferenceable(32) %5) #16
  %8 = getelementptr inbounds nuw i8, ptr %6, i64 %7
  store ptr %8, ptr %4, align 8, !tbaa !55
  call void @_ZN9__gnu_cxx17__normal_iteratorIPKcNSt7__cxx1112basic_stringIcSt11char_traitsIcESaIcEEEEC2ERKS2_(ptr noundef nonnull align 8 dereferenceable(8) %2, ptr noundef nonnull align 8 dereferenceable(8) %4) #16
  call void @llvm.lifetime.end.p0(i64 8, ptr %4) #16
  %9 = getelementptr inbounds nuw %"class.__gnu_cxx::__normal_iterator.28", ptr %2, i32 0, i32 0
  %10 = load ptr, ptr %9, align 8
  ret ptr %10
}

; Function Attrs: mustprogress nounwind uwtable
define available_externally ptr @_ZNKSt7__cxx1112basic_stringIcSt11char_traitsIcESaIcEE5beginEv(ptr noundef nonnull align 8 dereferenceable(32) %0) #4 align 2 {
  %2 = alloca %"class.__gnu_cxx::__normal_iterator.28", align 8
  %3 = alloca ptr, align 8
  %4 = alloca ptr, align 8
  store ptr %0, ptr %3, align 8, !tbaa !54
  %5 = load ptr, ptr %3, align 8
  call void @llvm.lifetime.start.p0(i64 8, ptr %4) #16
  %6 = call noundef ptr @_ZNKSt7__cxx1112basic_stringIcSt11char_traitsIcESaIcEE7_M_dataEv(ptr noundef nonnull align 8 dereferenceable(32) %5)
  store ptr %6, ptr %4, align 8, !tbaa !55
  call void @_ZN9__gnu_cxx17__normal_iteratorIPKcNSt7__cxx1112basic_stringIcSt11char_traitsIcESaIcEEEEC2ERKS2_(ptr noundef nonnull align 8 dereferenceable(8) %2, ptr noundef nonnull align 8 dereferenceable(8) %4) #16
  call void @llvm.lifetime.end.p0(i64 8, ptr %4) #16
  %7 = getelementptr inbounds nuw %"class.__gnu_cxx::__normal_iterator.28", ptr %2, i32 0, i32 0
  %8 = load ptr, ptr %7, align 8
  ret ptr %8
}

; Function Attrs: mustprogress nounwind uwtable
define available_externally noundef i64 @_ZNKSt7__cxx1112basic_stringIcSt11char_traitsIcESaIcEE13find_first_ofEPKcm(ptr noundef nonnull align 8 dereferenceable(32) %0, ptr noundef %1, i64 noundef %2) #4 align 2 {
  %4 = alloca ptr, align 8
  %5 = alloca ptr, align 8
  %6 = alloca i64, align 8
  store ptr %0, ptr %4, align 8, !tbaa !54
  store ptr %1, ptr %5, align 8, !tbaa !55
  store i64 %2, ptr %6, align 8, !tbaa !58
  %7 = load ptr, ptr %4, align 8
  %8 = load ptr, ptr %5, align 8, !tbaa !55
  %9 = load i64, ptr %6, align 8, !tbaa !58
  %10 = load ptr, ptr %5, align 8, !tbaa !55
  %11 = call noundef i64 @_ZNSt11char_traitsIcE6lengthEPKc(ptr noundef %10)
  %12 = call noundef i64 @_ZNKSt7__cxx1112basic_stringIcSt11char_traitsIcESaIcEE13find_first_ofEPKcmm(ptr noundef nonnull align 8 dereferenceable(32) %7, ptr noundef %8, i64 noundef %9, i64 noundef %11) #16
  ret i64 %12
}

; Function Attrs: inlinehint mustprogress nounwind uwtable
define linkonce_odr dso_local noundef zeroext i1 @_ZStneIcSt11char_traitsIcESaIcEEbRKNSt7__cxx1112basic_stringIT_T0_T1_EEPKS5_(ptr noundef nonnull align 8 dereferenceable(32) %0, ptr noundef %1) #3 comdat {
  %3 = alloca ptr, align 8
  %4 = alloca ptr, align 8
  store ptr %0, ptr %3, align 8, !tbaa !54
  store ptr %1, ptr %4, align 8, !tbaa !55
  %5 = load ptr, ptr %3, align 8, !tbaa !54
  %6 = load ptr, ptr %4, align 8, !tbaa !55
  %7 = call noundef zeroext i1 @_ZSteqIcSt11char_traitsIcESaIcEEbRKNSt7__cxx1112basic_stringIT_T0_T1_EEPKS5_(ptr noundef nonnull align 8 dereferenceable(32) %5, ptr noundef %6)
  %8 = xor i1 %7, true
  ret i1 %8
}

; Function Attrs: mustprogress nounwind uwtable
define available_externally noundef zeroext i1 @_ZNKSt7__cxx1112basic_stringIcSt11char_traitsIcESaIcEE5emptyEv(ptr noundef nonnull align 8 dereferenceable(32) %0) #4 align 2 {
  %2 = alloca ptr, align 8
  store ptr %0, ptr %2, align 8, !tbaa !54
  %3 = load ptr, ptr %2, align 8
  %4 = call noundef i64 @_ZNKSt7__cxx1112basic_stringIcSt11char_traitsIcESaIcEE4sizeEv(ptr noundef nonnull align 8 dereferenceable(32) %3) #16
  %5 = icmp eq i64 %4, 0
  ret i1 %5
}

; Function Attrs: mustprogress uwtable
define dso_local noundef zeroext i1 @_ZN4Luau12isValidAliasERKNSt7__cxx1112basic_stringIcSt11char_traitsIcESaIcEEE(ptr noundef nonnull align 8 dereferenceable(32) %0) #2 {
  %2 = alloca i1, align 1
  %3 = alloca ptr, align 8
  %4 = alloca i8, align 1
  %5 = alloca i32, align 4
  %6 = alloca ptr, align 8
  %7 = alloca %"class.__gnu_cxx::__normal_iterator.28", align 8
  %8 = alloca %"class.__gnu_cxx::__normal_iterator.28", align 8
  %9 = alloca i8, align 1
  %10 = alloca i8, align 1
  %11 = alloca i8, align 1
  %12 = alloca i8, align 1
  store ptr %0, ptr %3, align 8, !tbaa !54
  %13 = load ptr, ptr %3, align 8, !tbaa !54
  %14 = call noundef zeroext i1 @_ZNKSt7__cxx1112basic_stringIcSt11char_traitsIcESaIcEE5emptyEv(ptr noundef nonnull align 8 dereferenceable(32) %13) #16
  br i1 %14, label %15, label %16

15:                                               ; preds = %1
  store i1 false, ptr %2, align 1
  br label %110

16:                                               ; preds = %1
  call void @llvm.lifetime.start.p0(i64 1, ptr %4) #16
  %17 = load ptr, ptr %3, align 8, !tbaa !54
  %18 = call noundef zeroext i1 @_ZStneIcSt11char_traitsIcESaIcEEbRKNSt7__cxx1112basic_stringIT_T0_T1_EEPKS5_(ptr noundef nonnull align 8 dereferenceable(32) %17, ptr noundef @.str.66)
  br i1 %18, label %19, label %26

19:                                               ; preds = %16
  %20 = load ptr, ptr %3, align 8, !tbaa !54
  %21 = call noundef zeroext i1 @_ZStneIcSt11char_traitsIcESaIcEEbRKNSt7__cxx1112basic_stringIT_T0_T1_EEPKS5_(ptr noundef nonnull align 8 dereferenceable(32) %20, ptr noundef @.str.67)
  br i1 %21, label %22, label %26

22:                                               ; preds = %19
  %23 = load ptr, ptr %3, align 8, !tbaa !54
  %24 = call noundef i64 @_ZNKSt7__cxx1112basic_stringIcSt11char_traitsIcESaIcEE13find_first_ofEPKcm(ptr noundef nonnull align 8 dereferenceable(32) %23, ptr noundef @.str.68, i64 noundef 0) #16
  %25 = icmp eq i64 %24, -1
  br label %26

26:                                               ; preds = %22, %19, %16
  %27 = phi i1 [ false, %19 ], [ false, %16 ], [ %25, %22 ]
  %28 = zext i1 %27 to i8
  store i8 %28, ptr %4, align 1, !tbaa !91
  %29 = load i8, ptr %4, align 1, !tbaa !91, !range !64, !noundef !65
  %30 = trunc i8 %29 to i1
  br i1 %30, label %32, label %31

31:                                               ; preds = %26
  store i1 false, ptr %2, align 1
  store i32 1, ptr %5, align 4
  br label %109

32:                                               ; preds = %26
  call void @llvm.lifetime.start.p0(i64 8, ptr %6) #16
  %33 = load ptr, ptr %3, align 8, !tbaa !54
  store ptr %33, ptr %6, align 8, !tbaa !54
  call void @llvm.lifetime.start.p0(i64 8, ptr %7) #16
  %34 = load ptr, ptr %6, align 8, !tbaa !54
  %35 = call ptr @_ZNKSt7__cxx1112basic_stringIcSt11char_traitsIcESaIcEE5beginEv(ptr noundef nonnull align 8 dereferenceable(32) %34) #16
  %36 = getelementptr inbounds nuw %"class.__gnu_cxx::__normal_iterator.28", ptr %7, i32 0, i32 0
  store ptr %35, ptr %36, align 8
  call void @llvm.lifetime.start.p0(i64 8, ptr %8) #16
  %37 = load ptr, ptr %6, align 8, !tbaa !54
  %38 = call ptr @_ZNKSt7__cxx1112basic_stringIcSt11char_traitsIcESaIcEE3endEv(ptr noundef nonnull align 8 dereferenceable(32) %37) #16
  %39 = getelementptr inbounds nuw %"class.__gnu_cxx::__normal_iterator.28", ptr %8, i32 0, i32 0
  store ptr %38, ptr %39, align 8
  br label %40

40:                                               ; preds = %104, %32
  %41 = call noundef zeroext i1 @_ZN9__gnu_cxxneIPKcNSt7__cxx1112basic_stringIcSt11char_traitsIcESaIcEEEEEbRKNS_17__normal_iteratorIT_T0_EESE_(ptr noundef nonnull align 8 dereferenceable(8) %7, ptr noundef nonnull align 8 dereferenceable(8) %8) #16
  br i1 %41, label %43, label %42

42:                                               ; preds = %40
  store i32 2, ptr %5, align 4
  br label %106

43:                                               ; preds = %40
  call void @llvm.lifetime.start.p0(i64 1, ptr %9) #16
  %44 = call noundef nonnull align 1 dereferenceable(1) ptr @_ZNK9__gnu_cxx17__normal_iteratorIPKcNSt7__cxx1112basic_stringIcSt11char_traitsIcESaIcEEEEdeEv(ptr noundef nonnull align 8 dereferenceable(8) %7) #16
  %45 = load i8, ptr %44, align 1, !tbaa !82
  store i8 %45, ptr %9, align 1, !tbaa !82
  call void @llvm.lifetime.start.p0(i64 1, ptr %10) #16
  %46 = load i8, ptr %9, align 1, !tbaa !82
  %47 = sext i8 %46 to i32
  %48 = icmp sle i32 65, %47
  br i1 %48, label %49, label %53

49:                                               ; preds = %43
  %50 = load i8, ptr %9, align 1, !tbaa !82
  %51 = sext i8 %50 to i32
  %52 = icmp sle i32 %51, 90
  br label %53

53:                                               ; preds = %49, %43
  %54 = phi i1 [ false, %43 ], [ %52, %49 ]
  %55 = zext i1 %54 to i8
  store i8 %55, ptr %10, align 1, !tbaa !91
  call void @llvm.lifetime.start.p0(i64 1, ptr %11) #16
  %56 = load i8, ptr %9, align 1, !tbaa !82
  %57 = sext i8 %56 to i32
  %58 = icmp sle i32 97, %57
  br i1 %58, label %59, label %63

59:                                               ; preds = %53
  %60 = load i8, ptr %9, align 1, !tbaa !82
  %61 = sext i8 %60 to i32
  %62 = icmp sle i32 %61, 122
  br label %63

63:                                               ; preds = %59, %53
  %64 = phi i1 [ false, %53 ], [ %62, %59 ]
  %65 = zext i1 %64 to i8
  store i8 %65, ptr %11, align 1, !tbaa !91
  call void @llvm.lifetime.start.p0(i64 1, ptr %12) #16
  %66 = load i8, ptr %9, align 1, !tbaa !82
  %67 = sext i8 %66 to i32
  %68 = icmp sle i32 48, %67
  br i1 %68, label %69, label %73

69:                                               ; preds = %63
  %70 = load i8, ptr %9, align 1, !tbaa !82
  %71 = sext i8 %70 to i32
  %72 = icmp sle i32 %71, 57
  br label %73

73:                                               ; preds = %69, %63
  %74 = phi i1 [ false, %63 ], [ %72, %69 ]
  %75 = zext i1 %74 to i8
  store i8 %75, ptr %12, align 1, !tbaa !91
  %76 = load i8, ptr %10, align 1, !tbaa !91, !range !64, !noundef !65
  %77 = trunc i8 %76 to i1
  br i1 %77, label %97, label %78

78:                                               ; preds = %73
  %79 = load i8, ptr %11, align 1, !tbaa !91, !range !64, !noundef !65
  %80 = trunc i8 %79 to i1
  br i1 %80, label %97, label %81

81:                                               ; preds = %78
  %82 = load i8, ptr %12, align 1, !tbaa !91, !range !64, !noundef !65
  %83 = trunc i8 %82 to i1
  br i1 %83, label %97, label %84

84:                                               ; preds = %81
  %85 = load i8, ptr %9, align 1, !tbaa !82
  %86 = sext i8 %85 to i32
  %87 = icmp ne i32 %86, 45
  br i1 %87, label %88, label %97

88:                                               ; preds = %84
  %89 = load i8, ptr %9, align 1, !tbaa !82
  %90 = sext i8 %89 to i32
  %91 = icmp ne i32 %90, 95
  br i1 %91, label %92, label %97

92:                                               ; preds = %88
  %93 = load i8, ptr %9, align 1, !tbaa !82
  %94 = sext i8 %93 to i32
  %95 = icmp ne i32 %94, 46
  br i1 %95, label %96, label %97

96:                                               ; preds = %92
  store i1 false, ptr %2, align 1
  store i32 1, ptr %5, align 4
  br label %98

97:                                               ; preds = %92, %88, %84, %81, %78, %73
  store i32 0, ptr %5, align 4
  br label %98

98:                                               ; preds = %97, %96
  call void @llvm.lifetime.end.p0(i64 1, ptr %12) #16
  call void @llvm.lifetime.end.p0(i64 1, ptr %11) #16
  call void @llvm.lifetime.end.p0(i64 1, ptr %10) #16
  %99 = load i32, ptr %5, align 4
  switch i32 %99, label %101 [
    i32 0, label %100
  ]

100:                                              ; preds = %98
  store i32 0, ptr %5, align 4
  br label %101

101:                                              ; preds = %100, %98
  call void @llvm.lifetime.end.p0(i64 1, ptr %9) #16
  %102 = load i32, ptr %5, align 4
  switch i32 %102, label %106 [
    i32 0, label %103
  ]

103:                                              ; preds = %101
  br label %104

104:                                              ; preds = %103
  %105 = call noundef nonnull align 8 dereferenceable(8) ptr @_ZN9__gnu_cxx17__normal_iteratorIPKcNSt7__cxx1112basic_stringIcSt11char_traitsIcESaIcEEEEppEv(ptr noundef nonnull align 8 dereferenceable(8) %7) #16
  br label %40

106:                                              ; preds = %101, %42
  call void @llvm.lifetime.end.p0(i64 8, ptr %8) #16
  call void @llvm.lifetime.end.p0(i64 8, ptr %7) #16
  call void @llvm.lifetime.end.p0(i64 8, ptr %6) #16
  %107 = load i32, ptr %5, align 4
  switch i32 %107, label %109 [
    i32 2, label %108
  ]

108:                                              ; preds = %106
  store i1 true, ptr %2, align 1
  store i32 1, ptr %5, align 4
  br label %109

109:                                              ; preds = %108, %106, %31
  call void @llvm.lifetime.end.p0(i64 1, ptr %4) #16
  br label %110

110:                                              ; preds = %109, %15
  %111 = load i1, ptr %2, align 1
  ret i1 %111
}