; Function Attrs: mustprogress nounwind uwtable
define dso_local noundef zeroext i1 @_ZN4Luau12isValidAliasERKNSt7__cxx1112basic_stringIcSt11char_traitsIcESaIcEEE(ptr noundef nonnull align 8 dereferenceable(32) %0) local_unnamed_addr #4 {
  %2 = getelementptr inbounds nuw i8, ptr %0, i64 8
  %3 = load i64, ptr %2, align 8, !tbaa !44
  %4 = icmp eq i64 %3, 0
  br i1 %4, label %.critedge, label %5

5:                                                ; preds = %1
  %6 = tail call noundef i32 @_ZNKSt7__cxx1112basic_stringIcSt11char_traitsIcESaIcEE7compareEPKc(ptr noundef nonnull align 8 dereferenceable(32) %0, ptr noundef nonnull @.str.66) #21
  %.not = icmp eq i32 %6, 0
  br i1 %.not, label %.critedge, label %7

7:                                                ; preds = %5
  %8 = tail call noundef i32 @_ZNKSt7__cxx1112basic_stringIcSt11char_traitsIcESaIcEE7compareEPKc(ptr noundef nonnull align 8 dereferenceable(32) %0, ptr noundef nonnull @.str.67) #21
  %.not42 = icmp eq i32 %8, 0
  br i1 %.not42, label %.critedge, label %9

9:                                                ; preds = %7
  %10 = tail call noundef i64 @_ZNKSt7__cxx1112basic_stringIcSt11char_traitsIcESaIcEE13find_first_ofEPKcmm(ptr noundef nonnull align 8 dereferenceable(32) %0, ptr noundef nonnull @.str.68, i64 noundef 0, i64 noundef 2) #21
  %11 = icmp eq i64 %10, -1
  br i1 %11, label %12, label %.critedge

12:                                               ; preds = %9
  %13 = load ptr, ptr %0, align 8, !tbaa !48
  %14 = load i64, ptr %2, align 8, !tbaa !44
  %15 = getelementptr inbounds nuw i8, ptr %13, i64 %14
  %.not4346 = icmp samesign eq i64 %14, 0
  br i1 %.not4346, label %.critedge, label %.lr.ph

.lr.ph:                                           ; preds = %12, %.critedge38
  %.sroa.039.047 = phi ptr [ %21, %.critedge38 ], [ %13, %12 ]
  %16 = load i8, ptr %.sroa.039.047, align 1, !tbaa !45
  %.fr44 = freeze i8 %16
  %17 = and i8 %.fr44, -33
  %18 = add i8 %17, -91
  %or.cond36 = icmp ult i8 %18, -26
  %19 = add i8 %.fr44, -58
  %20 = icmp ult i8 %19, -10
  %or.cond = and i1 %20, %or.cond36
  br i1 %or.cond, label %switch.early.test, label %.critedge38

switch.early.test:                                ; preds = %.lr.ph
  switch i8 %.fr44, label %.critedge [
    i8 95, label %.critedge38
    i8 46, label %.critedge38
    i8 45, label %.critedge38
  ]

.critedge38:                                      ; preds = %switch.early.test, %switch.early.test, %switch.early.test, %.lr.ph
  %21 = getelementptr inbounds nuw i8, ptr %.sroa.039.047, i64 1
  %.not43 = icmp eq ptr %21, %15
  br i1 %.not43, label %.critedge, label %.lr.ph

.critedge:                                        ; preds = %switch.early.test, %.critedge38, %12, %7, %5, %9, %1
  %.0 = phi i1 [ false, %1 ], [ false, %9 ], [ false, %5 ], [ false, %7 ], [ true, %12 ], [ false, %switch.early.test ], [ true, %.critedge38 ]
  ret i1 %.0
}